#include <math.h>
#include <stdio.h>
#include <stdlib.h>
#include <string.h>

int main()
{
    int i,t,j,k,s=0;
    int a[17];
    for(scanf("%d",&a[1]);a[1]!=-1;scanf("%d",&a[1]))
    {
    for(i=2;;i++)
    {
        scanf("%d",&a[i]);
        if(a[i]==0)
        {
            t=i-1;
            break;
        }        
    }
    for(j=1;j<=t;j++)
    {
        for(k=1;k<=t;k++)
        {
            if(a[j]==2*a[k])
            s=s+1;
        }
    }
    printf("%d\n",s);
    s=0;
    }
    return 0;
}